In archive libRBELib.a:

SetServo.o:     file format elf32-avr

Sections:
Idx Name          Size      VMA       LMA       File off  Algn
  0 .text         00000000  00000000  00000000  00000034  2**0
                  CONTENTS, ALLOC, LOAD, READONLY, CODE
  1 .data         00000014  00000000  00000000  00000034  2**0
                  CONTENTS, ALLOC, LOAD, DATA
  2 .bss          00000000  00000000  00000000  00000048  2**0
                  ALLOC
  3 .text.initAltCom 00000038  00000000  00000000  00000048  2**0
                  CONTENTS, ALLOC, LOAD, RELOC, READONLY, CODE
  4 .text.setCharDebug 00000010  00000000  00000000  00000080  2**0
                  CONTENTS, ALLOC, LOAD, RELOC, READONLY, CODE
  5 .text.coPrintf 0000001a  00000000  00000000  00000090  2**0
                  CONTENTS, ALLOC, LOAD, RELOC, READONLY, CODE
  6 .text.setServo 00000084  00000000  00000000  000000aa  2**0
                  CONTENTS, ALLOC, LOAD, RELOC, READONLY, CODE

Disassembly of section .text.initAltCom:

00000000 <initAltCom>:
   0:	9b 01       	movw	r18, r22
   2:	ac 01       	movw	r20, r24
   4:	84 e0       	ldi	r24, 0x04	; 4
   6:	22 0f       	add	r18, r18
   8:	33 1f       	adc	r19, r19
   a:	44 1f       	adc	r20, r20
   c:	55 1f       	adc	r21, r21
   e:	8a 95       	dec	r24
  10:	01 f4       	brne	.+0      	; 0x12 <initAltCom+0x12>
  12:	60 e0       	ldi	r22, 0x00	; 0
  14:	70 e4       	ldi	r23, 0x40	; 64
  16:	89 e1       	ldi	r24, 0x19	; 25
  18:	91 e0       	ldi	r25, 0x01	; 1
  1a:	0e 94 00 00 	call	0	; 0x0 <initAltCom>
  1e:	21 50       	subi	r18, 0x01	; 1
  20:	30 40       	sbci	r19, 0x00	; 0
  22:	30 93 c5 00 	sts	0x00C5, r19
  26:	20 93 c4 00 	sts	0x00C4, r18
  2a:	88 e1       	ldi	r24, 0x18	; 24
  2c:	80 93 c1 00 	sts	0x00C1, r24
  30:	86 e0       	ldi	r24, 0x06	; 6
  32:	80 93 c2 00 	sts	0x00C2, r24
  36:	08 95       	ret

Disassembly of section .text.setCharDebug:

00000000 <setCharDebug>:
   0:	98 2f       	mov	r25, r24
   2:	80 91 c0 00 	lds	r24, 0x00C0
   6:	85 ff       	sbrs	r24, 5
   8:	00 c0       	rjmp	.+0      	; 0xa <setCharDebug+0xa>
   a:	90 93 c6 00 	sts	0x00C6, r25
   e:	08 95       	ret

Disassembly of section .text.coPrintf:

00000000 <coPrintf>:
   0:	fc 01       	movw	r30, r24
   2:	00 c0       	rjmp	.+0      	; 0x4 <coPrintf+0x4>
   4:	80 91 c0 00 	lds	r24, 0x00C0
   8:	85 ff       	sbrs	r24, 5
   a:	00 c0       	rjmp	.+0      	; 0xc <coPrintf+0xc>
   c:	90 93 c6 00 	sts	0x00C6, r25
  10:	31 96       	adiw	r30, 0x01	; 1
  12:	90 81       	ld	r25, Z
  14:	99 23       	and	r25, r25
  16:	01 f4       	brne	.+0      	; 0x18 <coPrintf+0x18>
  18:	08 95       	ret

Disassembly of section .text.setServo:

00000000 <setServo>:
   0:	0f 93       	push	r16
   2:	1f 93       	push	r17
   4:	df 93       	push	r29
   6:	cf 93       	push	r28
   8:	cd b7       	in	r28, 0x3d	; 61
   a:	de b7       	in	r29, 0x3e	; 62
   c:	64 97       	sbiw	r28, 0x14	; 20
   e:	0f b6       	in	r0, 0x3f	; 63
  10:	f8 94       	cli
  12:	de bf       	out	0x3e, r29	; 62
  14:	0f be       	out	0x3f, r0	; 63
  16:	cd bf       	out	0x3d, r28	; 61
  18:	2d b7       	in	r18, 0x3d	; 61
  1a:	3e b7       	in	r19, 0x3e	; 62
  1c:	28 50       	subi	r18, 0x08	; 8
  1e:	30 40       	sbci	r19, 0x00	; 0
  20:	0f b6       	in	r0, 0x3f	; 63
  22:	f8 94       	cli
  24:	3e bf       	out	0x3e, r19	; 62
  26:	0f be       	out	0x3f, r0	; 63
  28:	2d bf       	out	0x3d, r18	; 61
  2a:	ed b7       	in	r30, 0x3d	; 61
  2c:	fe b7       	in	r31, 0x3e	; 62
  2e:	31 96       	adiw	r30, 0x01	; 1
  30:	8e 01       	movw	r16, r28
  32:	0f 5f       	subi	r16, 0xFF	; 255
  34:	1f 4f       	sbci	r17, 0xFF	; 255
  36:	ad b7       	in	r26, 0x3d	; 61
  38:	be b7       	in	r27, 0x3e	; 62
  3a:	12 96       	adiw	r26, 0x02	; 2
  3c:	1c 93       	st	X, r17
  3e:	0e 93       	st	-X, r16
  40:	11 97       	sbiw	r26, 0x01	; 1
  42:	20 e0       	ldi	r18, 0x00	; 0
  44:	30 e0       	ldi	r19, 0x00	; 0
  46:	33 83       	std	Z+3, r19	; 0x03
  48:	22 83       	std	Z+2, r18	; 0x02
  4a:	95 83       	std	Z+5, r25	; 0x05
  4c:	84 83       	std	Z+4, r24	; 0x04
  4e:	77 83       	std	Z+7, r23	; 0x07
  50:	66 83       	std	Z+6, r22	; 0x06
  52:	0e 94 00 00 	call	0	; 0x0 <setServo>
  56:	2d b7       	in	r18, 0x3d	; 61
  58:	3e b7       	in	r19, 0x3e	; 62
  5a:	28 5f       	subi	r18, 0xF8	; 248
  5c:	3f 4f       	sbci	r19, 0xFF	; 255
  5e:	0f b6       	in	r0, 0x3f	; 63
  60:	f8 94       	cli
  62:	3e bf       	out	0x3e, r19	; 62
  64:	0f be       	out	0x3f, r0	; 63
  66:	2d bf       	out	0x3d, r18	; 61
  68:	c8 01       	movw	r24, r16
  6a:	0e 94 00 00 	call	0	; 0x0 <setServo>
  6e:	64 96       	adiw	r28, 0x14	; 20
  70:	0f b6       	in	r0, 0x3f	; 63
  72:	f8 94       	cli
  74:	de bf       	out	0x3e, r29	; 62
  76:	0f be       	out	0x3f, r0	; 63
  78:	cd bf       	out	0x3d, r28	; 61
  7a:	cf 91       	pop	r28
  7c:	df 91       	pop	r29
  7e:	1f 91       	pop	r17
  80:	0f 91       	pop	r16
  82:	08 95       	ret

ADC.o:     file format elf32-avr

Sections:
Idx Name          Size      VMA       LMA       File off  Algn
  0 .text         00000000  00000000  00000000  00000034  2**0
                  CONTENTS, ALLOC, LOAD, READONLY, CODE
  1 .data         00000000  00000000  00000000  00000034  2**0
                  CONTENTS, ALLOC, LOAD, DATA
  2 .bss          00000000  00000000  00000000  00000034  2**0
                  ALLOC
  3 .text.initADC 0000002c  00000000  00000000  00000034  2**0
                  CONTENTS, ALLOC, LOAD, RELOC, READONLY, CODE
  4 .text.clearADC 00000014  00000000  00000000  00000060  2**0
                  CONTENTS, ALLOC, LOAD, READONLY, CODE
  5 .text.getADC  00000034  00000000  00000000  00000074  2**0
                  CONTENTS, ALLOC, LOAD, RELOC, READONLY, CODE
  6 .text.changeADC 00000012  00000000  00000000  000000a8  2**0
                  CONTENTS, ALLOC, LOAD, READONLY, CODE

Disassembly of section .text.initADC:

00000000 <initADC>:
   0:	f8 94       	cli
   2:	91 b1       	in	r25, 0x01	; 1
   4:	21 e0       	ldi	r18, 0x01	; 1
   6:	30 e0       	ldi	r19, 0x00	; 0
   8:	00 c0       	rjmp	.+0      	; 0xa <initADC+0xa>
   a:	22 0f       	add	r18, r18
   c:	33 1f       	adc	r19, r19
   e:	8a 95       	dec	r24
  10:	02 f4       	brpl	.+0      	; 0x12 <initADC+0x12>
  12:	20 95       	com	r18
  14:	29 23       	and	r18, r25
  16:	21 b9       	out	0x01, r18	; 1
  18:	80 e4       	ldi	r24, 0x40	; 64
  1a:	80 93 7c 00 	sts	0x007C, r24
  1e:	ea e7       	ldi	r30, 0x7A	; 122
  20:	f0 e0       	ldi	r31, 0x00	; 0
  22:	80 81       	ld	r24, Z
  24:	8f 68       	ori	r24, 0x8F	; 143
  26:	80 83       	st	Z, r24
  28:	78 94       	sei
  2a:	08 95       	ret

Disassembly of section .text.clearADC:

00000000 <clearADC>:
   0:	ea e7       	ldi	r30, 0x7A	; 122
   2:	f0 e0       	ldi	r31, 0x00	; 0
   4:	80 81       	ld	r24, Z
   6:	8f 77       	andi	r24, 0x7F	; 127
   8:	80 83       	st	Z, r24
   a:	10 92 79 00 	sts	0x0079, r1
   e:	10 92 78 00 	sts	0x0078, r1
  12:	08 95       	ret

Disassembly of section .text.getADC:

00000000 <getADC>:
   0:	90 91 7c 00 	lds	r25, 0x007C
   4:	90 7e       	andi	r25, 0xE0	; 224
   6:	90 93 7c 00 	sts	0x007C, r25
   a:	90 91 7c 00 	lds	r25, 0x007C
   e:	8f 71       	andi	r24, 0x1F	; 31
  10:	89 2b       	or	r24, r25
  12:	80 93 7c 00 	sts	0x007C, r24
  16:	80 91 7a 00 	lds	r24, 0x007A
  1a:	80 64       	ori	r24, 0x40	; 64
  1c:	80 93 7a 00 	sts	0x007A, r24
  20:	80 91 7a 00 	lds	r24, 0x007A
  24:	86 fd       	sbrc	r24, 6
  26:	00 c0       	rjmp	.+0      	; 0x28 <getADC+0x28>
  28:	20 91 78 00 	lds	r18, 0x0078
  2c:	30 91 79 00 	lds	r19, 0x0079
  30:	c9 01       	movw	r24, r18
  32:	08 95       	ret

Disassembly of section .text.changeADC:

00000000 <changeADC>:
   0:	ec e7       	ldi	r30, 0x7C	; 124
   2:	f0 e0       	ldi	r31, 0x00	; 0
   4:	90 81       	ld	r25, Z
   6:	90 7e       	andi	r25, 0xE0	; 224
   8:	90 83       	st	Z, r25
   a:	90 81       	ld	r25, Z
   c:	98 2b       	or	r25, r24
   e:	90 83       	st	Z, r25
  10:	08 95       	ret

Debug.o:     file format elf32-avr

Sections:
Idx Name          Size      VMA       LMA       File off  Algn
  0 .text         00000000  00000000  00000000  00000034  2**0
                  CONTENTS, ALLOC, LOAD, READONLY, CODE
  1 .data         00000000  00000000  00000000  00000034  2**0
                  CONTENTS, ALLOC, LOAD, DATA
  2 .bss          00000000  00000000  00000000  00000034  2**0
                  ALLOC
  3 .text.initRBELib 0000001a  00000000  00000000  00000034  2**0
                  CONTENTS, ALLOC, LOAD, RELOC, READONLY, CODE
  4 .text.printfRBE 0000000a  00000000  00000000  0000004e  2**0
                  CONTENTS, ALLOC, LOAD, RELOC, READONLY, CODE
  5 .data.RBEOut  0000000e  00000000  00000000  00000058  2**0
                  CONTENTS, ALLOC, LOAD, RELOC, DATA

Disassembly of section .text.initRBELib:

00000000 <initRBELib>:
   0:	80 e0       	ldi	r24, 0x00	; 0
   2:	90 e0       	ldi	r25, 0x00	; 0
   4:	90 93 00 00 	sts	0x0000, r25
   8:	80 93 00 00 	sts	0x0000, r24
   c:	60 e0       	ldi	r22, 0x00	; 0
   e:	72 ec       	ldi	r23, 0xC2	; 194
  10:	81 e0       	ldi	r24, 0x01	; 1
  12:	90 e0       	ldi	r25, 0x00	; 0
  14:	0e 94 00 00 	call	0	; 0x0 <initRBELib>
  18:	08 95       	ret

Disassembly of section .text.printfRBE:

00000000 <printfRBE>:
   0:	0e 94 00 00 	call	0	; 0x0 <printfRBE>
   4:	80 e0       	ldi	r24, 0x00	; 0
   6:	90 e0       	ldi	r25, 0x00	; 0
   8:	08 95       	ret

USARTDebug.o:     file format elf32-avr

Sections:
Idx Name          Size      VMA       LMA       File off  Algn
  0 .text         00000000  00000000  00000000  00000034  2**0
                  CONTENTS, ALLOC, LOAD, READONLY, CODE
  1 .data         00000000  00000000  00000000  00000034  2**0
                  CONTENTS, ALLOC, LOAD, DATA
  2 .bss          00000000  00000000  00000000  00000034  2**0
                  ALLOC
  3 .text.debugUSARTInit 00000042  00000000  00000000  00000034  2**0
                  CONTENTS, ALLOC, LOAD, RELOC, READONLY, CODE
  4 .text.putCharDebug 00000010  00000000  00000000  00000076  2**0
                  CONTENTS, ALLOC, LOAD, RELOC, READONLY, CODE
  5 .text.getCharDebug 0000000e  00000000  00000000  00000086  2**0
                  CONTENTS, ALLOC, LOAD, RELOC, READONLY, CODE

Disassembly of section .text.debugUSARTInit:

00000000 <debugUSARTInit>:
   0:	9b 01       	movw	r18, r22
   2:	ac 01       	movw	r20, r24
   4:	94 e0       	ldi	r25, 0x04	; 4
   6:	22 0f       	add	r18, r18
   8:	33 1f       	adc	r19, r19
   a:	44 1f       	adc	r20, r20
   c:	55 1f       	adc	r21, r21
   e:	9a 95       	dec	r25
  10:	01 f4       	brne	.+0      	; 0x12 <debugUSARTInit+0x12>
  12:	60 e0       	ldi	r22, 0x00	; 0
  14:	70 e4       	ldi	r23, 0x40	; 64
  16:	89 e1       	ldi	r24, 0x19	; 25
  18:	91 e0       	ldi	r25, 0x01	; 1
  1a:	0e 94 00 00 	call	0	; 0x0 <debugUSARTInit>
  1e:	21 50       	subi	r18, 0x01	; 1
  20:	30 40       	sbci	r19, 0x00	; 0
  22:	83 2f       	mov	r24, r19
  24:	99 27       	eor	r25, r25
  26:	87 fd       	sbrc	r24, 7
  28:	9a 95       	dec	r25
  2a:	8f 70       	andi	r24, 0x0F	; 15
  2c:	80 93 cd 00 	sts	0x00CD, r24
  30:	20 93 cc 00 	sts	0x00CC, r18
  34:	88 e1       	ldi	r24, 0x18	; 24
  36:	80 93 c9 00 	sts	0x00C9, r24
  3a:	86 e0       	ldi	r24, 0x06	; 6
  3c:	80 93 ca 00 	sts	0x00CA, r24
  40:	08 95       	ret

Disassembly of section .text.putCharDebug:

00000000 <putCharDebug>:
   0:	98 2f       	mov	r25, r24
   2:	80 91 c8 00 	lds	r24, 0x00C8
   6:	85 ff       	sbrs	r24, 5
   8:	00 c0       	rjmp	.+0      	; 0xa <putCharDebug+0xa>
   a:	90 93 ce 00 	sts	0x00CE, r25
   e:	08 95       	ret

Disassembly of section .text.getCharDebug:

00000000 <getCharDebug>:
   0:	80 91 c8 00 	lds	r24, 0x00C8
   4:	87 ff       	sbrs	r24, 7
   6:	00 c0       	rjmp	.+0      	; 0x8 <getCharDebug+0x8>
   8:	80 91 ce 00 	lds	r24, 0x00CE
   c:	08 95       	ret

timer.o:     file format elf32-avr

Sections:
Idx Name          Size      VMA       LMA       File off  Algn
  0 .text         00000000  00000000  00000000  00000034  2**0
                  CONTENTS, ALLOC, LOAD, READONLY, CODE
  1 .data         00000000  00000000  00000000  00000034  2**0
                  CONTENTS, ALLOC, LOAD, DATA
  2 .bss          00000000  00000000  00000000  00000034  2**0
                  ALLOC
  3 .text.initTimer 00000082  00000000  00000000  00000034  2**0
                  CONTENTS, ALLOC, LOAD, RELOC, READONLY, CODE
  4 .text.setCompValue 0000002e  00000000  00000000  000000b6  2**0
                  CONTENTS, ALLOC, LOAD, RELOC, READONLY, CODE

Disassembly of section .text.initTimer:

00000000 <initTimer>:
   0:	f8 94       	cli
   2:	81 30       	cpi	r24, 0x01	; 1
   4:	01 f0       	breq	.+0      	; 0x6 <initTimer+0x6>
   6:	81 30       	cpi	r24, 0x01	; 1
   8:	00 f0       	brcs	.+0      	; 0xa <initTimer+0xa>
   a:	82 30       	cpi	r24, 0x02	; 2
   c:	01 f4       	brne	.+0      	; 0xe <initTimer+0xe>
   e:	00 c0       	rjmp	.+0      	; 0x10 <initTimer+0x10>
  10:	86 e0       	ldi	r24, 0x06	; 6
  12:	90 e0       	ldi	r25, 0x00	; 0
  14:	00 c0       	rjmp	.+0      	; 0x16 <initTimer+0x16>
  16:	88 0f       	add	r24, r24
  18:	99 1f       	adc	r25, r25
  1a:	6a 95       	dec	r22
  1c:	02 f4       	brpl	.+0      	; 0x1e <initTimer+0x1e>
  1e:	84 bd       	out	0x24, r24	; 36
  20:	15 bc       	out	0x25, r1	; 37
  22:	47 bd       	out	0x27, r20	; 39
  24:	80 91 6e 00 	lds	r24, 0x006E
  28:	82 60       	ori	r24, 0x02	; 2
  2a:	80 93 6e 00 	sts	0x006E, r24
  2e:	00 c0       	rjmp	.+0      	; 0x30 <initTimer+0x30>
  30:	88 b1       	in	r24, 0x08	; 8
  32:	92 e0       	ldi	r25, 0x02	; 2
  34:	89 27       	eor	r24, r25
  36:	88 b9       	out	0x08, r24	; 8
  38:	62 95       	swap	r22
  3a:	66 0f       	add	r22, r22
  3c:	66 0f       	add	r22, r22
  3e:	60 7c       	andi	r22, 0xC0	; 192
  40:	60 93 80 00 	sts	0x0080, r22
  44:	89 e0       	ldi	r24, 0x09	; 9
  46:	80 93 81 00 	sts	0x0081, r24
  4a:	40 93 88 00 	sts	0x0088, r20
  4e:	80 91 6f 00 	lds	r24, 0x006F
  52:	82 60       	ori	r24, 0x02	; 2
  54:	80 93 6f 00 	sts	0x006F, r24
  58:	00 c0       	rjmp	.+0      	; 0x5a <initTimer+0x5a>
  5a:	86 e0       	ldi	r24, 0x06	; 6
  5c:	90 e0       	ldi	r25, 0x00	; 0
  5e:	00 c0       	rjmp	.+0      	; 0x60 <initTimer+0x60>
  60:	88 0f       	add	r24, r24
  62:	99 1f       	adc	r25, r25
  64:	6a 95       	dec	r22
  66:	02 f4       	brpl	.+0      	; 0x68 <initTimer+0x68>
  68:	80 93 b0 00 	sts	0x00B0, r24
  6c:	10 92 b1 00 	sts	0x00B1, r1
  70:	40 93 b3 00 	sts	0x00B3, r20
  74:	80 91 70 00 	lds	r24, 0x0070
  78:	82 60       	ori	r24, 0x02	; 2
  7a:	80 93 70 00 	sts	0x0070, r24
  7e:	78 94       	sei
  80:	08 95       	ret

Disassembly of section .text.setCompValue:

00000000 <setCompValue>:
   0:	81 30       	cpi	r24, 0x01	; 1
   2:	01 f0       	breq	.+0      	; 0x4 <setCompValue+0x4>
   4:	81 30       	cpi	r24, 0x01	; 1
   6:	00 f0       	brcs	.+0      	; 0x8 <setCompValue+0x8>
   8:	82 30       	cpi	r24, 0x02	; 2
   a:	01 f4       	brne	.+0      	; 0xc <setCompValue+0xc>
   c:	00 c0       	rjmp	.+0      	; 0xe <setCompValue+0xe>
   e:	67 bd       	out	0x27, r22	; 39
  10:	08 95       	ret
  12:	86 2f       	mov	r24, r22
  14:	90 e0       	ldi	r25, 0x00	; 0
  16:	90 93 89 00 	sts	0x0089, r25
  1a:	80 93 88 00 	sts	0x0088, r24
  1e:	08 95       	ret
  20:	86 2f       	mov	r24, r22
  22:	90 e0       	ldi	r25, 0x00	; 0
  24:	90 93 8b 00 	sts	0x008B, r25
  28:	80 93 8a 00 	sts	0x008A, r24
  2c:	08 95       	ret
